target datalayout = "e-m:e-p270:32:32-p271:32:32-p272:64:64-i64:64-i128:128-f80:128-n8:16:32:64-S128"
target triple = "x86_64-pc-linux-gnu"

%struct.lua_State = type { i8, i8, i8, i8, i8, i8, i8, ptr, ptr, ptr, ptr, ptr, ptr, ptr, ptr, i32, i32, i16, i16, i32, ptr, ptr, ptr, ptr, ptr }
%struct.CallInfo = type { ptr, ptr, ptr, ptr, i32, i32 }
%struct.lua_TValue = type { %union.Value, [1 x i32], i32 }
%union.Value = type { ptr }
%struct.Closure = type { i8, i8, i8, i8, i8, i8, i8, ptr, ptr, %union.anon.0 }
%union.anon.0 = type { %struct.anon }
%struct.anon = type { ptr, ptr, ptr, [1 x %struct.lua_TValue] }

@.str.14 = private unnamed_addr constant [18 x i8] c"not enough memory\00", align 1
@.str.15 = private unnamed_addr constant [24 x i8] c"error in error handling\00", align 1

; Function Attrs: mustprogress uwtable
define internal void @_ZL15resume_continueP9lua_State(ptr noundef %0) #2 {
  %2 = alloca ptr, align 8
  %3 = alloca ptr, align 8
  %4 = alloca i32, align 4
  %5 = alloca i32, align 4
  store ptr %0, ptr %2, align 8, !tbaa !20
  br label %6

6:                                                ; preds = %64, %1
  %7 = load ptr, ptr %2, align 8, !tbaa !20
  %8 = getelementptr inbounds nuw %struct.lua_State, ptr %7, i32 0, i32 3
  %9 = load i8, ptr %8, align 1, !tbaa !90
  %10 = zext i8 %9 to i32
  %11 = icmp eq i32 %10, 0
  br i1 %11, label %12, label %20

12:                                               ; preds = %6
  %13 = load ptr, ptr %2, align 8, !tbaa !20
  %14 = getelementptr inbounds nuw %struct.lua_State, ptr %13, i32 0, i32 10
  %15 = load ptr, ptr %14, align 8, !tbaa !35
  %16 = load ptr, ptr %2, align 8, !tbaa !20
  %17 = getelementptr inbounds nuw %struct.lua_State, ptr %16, i32 0, i32 14
  %18 = load ptr, ptr %17, align 8, !tbaa !67
  %19 = icmp ugt ptr %15, %18
  br label %20

20:                                               ; preds = %12, %6
  %21 = phi i1 [ false, %6 ], [ %19, %12 ]
  br i1 %21, label %22, label %65

22:                                               ; preds = %20
  call void @llvm.lifetime.start.p0(i64 8, ptr %3) #15
  %23 = load ptr, ptr %2, align 8, !tbaa !20
  %24 = getelementptr inbounds nuw %struct.lua_State, ptr %23, i32 0, i32 10
  %25 = load ptr, ptr %24, align 8, !tbaa !35
  %26 = getelementptr inbounds nuw %struct.CallInfo, ptr %25, i32 0, i32 1
  %27 = load ptr, ptr %26, align 8, !tbaa !68
  %28 = getelementptr inbounds nuw %struct.lua_TValue, ptr %27, i32 0, i32 0
  %29 = load ptr, ptr %28, align 8, !tbaa !65
  store ptr %29, ptr %3, align 8, !tbaa !93
  %30 = load ptr, ptr %3, align 8, !tbaa !93
  %31 = getelementptr inbounds nuw %struct.Closure, ptr %30, i32 0, i32 3
  %32 = load i8, ptr %31, align 1, !tbaa !95
  %33 = icmp ne i8 %32, 0
  br i1 %33, label %34, label %59

34:                                               ; preds = %22
  call void @llvm.lifetime.start.p0(i64 4, ptr %4) #15
  %35 = load ptr, ptr %3, align 8, !tbaa !93
  %36 = getelementptr inbounds nuw %struct.Closure, ptr %35, i32 0, i32 9
  %37 = getelementptr inbounds nuw %struct.anon, ptr %36, i32 0, i32 1
  %38 = load ptr, ptr %37, align 8, !tbaa !65
  %39 = load ptr, ptr %2, align 8, !tbaa !20
  %40 = call noundef i32 %38(ptr noundef %39, i32 noundef 0)
  store i32 %40, ptr %4, align 4, !tbaa !23
  %41 = load ptr, ptr %2, align 8, !tbaa !20
  %42 = getelementptr inbounds nuw %struct.lua_State, ptr %41, i32 0, i32 3
  %43 = load i8, ptr %42, align 1, !tbaa !90
  %44 = zext i8 %43 to i32
  %45 = icmp eq i32 %44, 6
  br i1 %45, label %46, label %47

46:                                               ; preds = %34
  store i32 3, ptr %5, align 4
  br label %56

47:                                               ; preds = %34
  %48 = load ptr, ptr %2, align 8, !tbaa !20
  %49 = load ptr, ptr %2, align 8, !tbaa !20
  %50 = getelementptr inbounds nuw %struct.lua_State, ptr %49, i32 0, i32 7
  %51 = load ptr, ptr %50, align 8, !tbaa !51
  %52 = load i32, ptr %4, align 4, !tbaa !23
  %53 = sext i32 %52 to i64
  %54 = sub i64 0, %53
  %55 = getelementptr inbounds %struct.lua_TValue, ptr %51, i64 %54
  call void @_Z12luau_poscallP9lua_StateP10lua_TValue(ptr noundef %48, ptr noundef %55)
  store i32 0, ptr %5, align 4
  br label %56

56:                                               ; preds = %47, %46
  call void @llvm.lifetime.end.p0(i64 4, ptr %4) #15
  %57 = load i32, ptr %5, align 4
  switch i32 %57, label %62 [
    i32 0, label %58
  ]

58:                                               ; preds = %56
  br label %61

59:                                               ; preds = %22
  %60 = load ptr, ptr %2, align 8, !tbaa !20
  call void @_Z12luau_executeP9lua_State(ptr noundef %60)
  br label %61

61:                                               ; preds = %59, %58
  store i32 0, ptr %5, align 4
  br label %62

62:                                               ; preds = %61, %56
  call void @llvm.lifetime.end.p0(i64 8, ptr %3) #15
  %63 = load i32, ptr %5, align 4
  switch i32 %63, label %66 [
    i32 0, label %64
    i32 3, label %65
  ]

64:                                               ; preds = %62
  br label %6, !llvm.loop !102

65:                                               ; preds = %62, %20
  ret void

66:                                               ; preds = %62
  unreachable
}

; Function Attrs: mustprogress uwtable
define internal void @_ZL11seterrorobjP9lua_StateiP10lua_TValue(ptr noundef %0, i32 noundef %1, ptr noundef %2) #2 {
  %4 = alloca ptr, align 8
  %5 = alloca i32, align 4
  %6 = alloca ptr, align 8
  %7 = alloca ptr, align 8
  %8 = alloca ptr, align 8
  %9 = alloca ptr, align 8
  %10 = alloca ptr, align 8
  store ptr %0, ptr %4, align 8, !tbaa !20
  store i32 %1, ptr %5, align 4, !tbaa !23
  store ptr %2, ptr %6, align 8, !tbaa !53
  %11 = load i32, ptr %5, align 4, !tbaa !23
  switch i32 %11, label %36 [
    i32 4, label %12
    i32 5, label %20
    i32 3, label %28
    i32 2, label %28
  ]

12:                                               ; preds = %3
  call void @llvm.lifetime.start.p0(i64 8, ptr %7) #15
  %13 = load ptr, ptr %6, align 8, !tbaa !53
  store ptr %13, ptr %7, align 8, !tbaa !53
  %14 = load ptr, ptr %4, align 8, !tbaa !20
  %15 = call noundef ptr @_Z12luaS_newlstrP9lua_StatePKcm(ptr noundef %14, ptr noundef @.str.14, i64 noundef 17)
  %16 = load ptr, ptr %7, align 8, !tbaa !53
  %17 = getelementptr inbounds nuw %struct.lua_TValue, ptr %16, i32 0, i32 0
  store ptr %15, ptr %17, align 8, !tbaa !65
  %18 = load ptr, ptr %7, align 8, !tbaa !53
  %19 = getelementptr inbounds nuw %struct.lua_TValue, ptr %18, i32 0, i32 2
  store i32 5, ptr %19, align 4, !tbaa !56
  call void @llvm.lifetime.end.p0(i64 8, ptr %7) #15
  br label %36

20:                                               ; preds = %3
  call void @llvm.lifetime.start.p0(i64 8, ptr %8) #15
  %21 = load ptr, ptr %6, align 8, !tbaa !53
  store ptr %21, ptr %8, align 8, !tbaa !53
  %22 = load ptr, ptr %4, align 8, !tbaa !20
  %23 = call noundef ptr @_Z12luaS_newlstrP9lua_StatePKcm(ptr noundef %22, ptr noundef @.str.15, i64 noundef 23)
  %24 = load ptr, ptr %8, align 8, !tbaa !53
  %25 = getelementptr inbounds nuw %struct.lua_TValue, ptr %24, i32 0, i32 0
  store ptr %23, ptr %25, align 8, !tbaa !65
  %26 = load ptr, ptr %8, align 8, !tbaa !53
  %27 = getelementptr inbounds nuw %struct.lua_TValue, ptr %26, i32 0, i32 2
  store i32 5, ptr %27, align 4, !tbaa !56
  call void @llvm.lifetime.end.p0(i64 8, ptr %8) #15
  br label %36

28:                                               ; preds = %3, %3
  call void @llvm.lifetime.start.p0(i64 8, ptr %9) #15
  %29 = load ptr, ptr %4, align 8, !tbaa !20
  %30 = getelementptr inbounds nuw %struct.lua_State, ptr %29, i32 0, i32 7
  %31 = load ptr, ptr %30, align 8, !tbaa !51
  %32 = getelementptr inbounds %struct.lua_TValue, ptr %31, i64 -1
  store ptr %32, ptr %9, align 8, !tbaa !53
  call void @llvm.lifetime.start.p0(i64 8, ptr %10) #15
  %33 = load ptr, ptr %6, align 8, !tbaa !53
  store ptr %33, ptr %10, align 8, !tbaa !53
  %34 = load ptr, ptr %9, align 8, !tbaa !53
  %35 = load ptr, ptr %10, align 8, !tbaa !53
  call void @llvm.memcpy.p0.p0.i64(ptr align 8 %35, ptr align 8 %34, i64 16, i1 false), !tbaa.struct !101
  call void @llvm.lifetime.end.p0(i64 8, ptr %10) #15
  call void @llvm.lifetime.end.p0(i64 8, ptr %9) #15
  br label %36

36:                                               ; preds = %3, %28, %20, %12
  %37 = load ptr, ptr %6, align 8, !tbaa !53
  %38 = getelementptr inbounds %struct.lua_TValue, ptr %37, i64 1
  %39 = load ptr, ptr %4, align 8, !tbaa !20
  %40 = getelementptr inbounds nuw %struct.lua_State, ptr %39, i32 0, i32 7
  store ptr %38, ptr %40, align 8, !tbaa !51
  ret void
}

; Function Attrs: mustprogress uwtable
define internal void @_ZL13resume_handleP9lua_StatePv(ptr noundef %0, ptr noundef %1) #2 {
  %3 = alloca ptr, align 8
  %4 = alloca ptr, align 8
  %5 = alloca ptr, align 8
  %6 = alloca ptr, align 8
  %7 = alloca i32, align 4
  %8 = alloca i64, align 8
  %9 = alloca i32, align 4
  store ptr %0, ptr %3, align 8, !tbaa !20
  store ptr %1, ptr %4, align 8, !tbaa !22
  call void @llvm.lifetime.start.p0(i64 8, ptr %5) #15
  %10 = load ptr, ptr %4, align 8, !tbaa !22
  store ptr %10, ptr %5, align 8, !tbaa !45
  call void @llvm.lifetime.start.p0(i64 8, ptr %6) #15
  %11 = load ptr, ptr %5, align 8, !tbaa !45
  %12 = getelementptr inbounds nuw %struct.CallInfo, ptr %11, i32 0, i32 1
  %13 = load ptr, ptr %12, align 8, !tbaa !68
  %14 = getelementptr inbounds nuw %struct.lua_TValue, ptr %13, i32 0, i32 0
  %15 = load ptr, ptr %14, align 8, !tbaa !65
  store ptr %15, ptr %6, align 8, !tbaa !93
  %16 = load ptr, ptr %3, align 8, !tbaa !20
  %17 = getelementptr inbounds nuw %struct.lua_State, ptr %16, i32 0, i32 18
  %18 = load i16, ptr %17, align 2, !tbaa !91
  %19 = load ptr, ptr %3, align 8, !tbaa !20
  %20 = getelementptr inbounds nuw %struct.lua_State, ptr %19, i32 0, i32 17
  store i16 %18, ptr %20, align 8, !tbaa !72
  %21 = load ptr, ptr %5, align 8, !tbaa !45
  %22 = getelementptr inbounds nuw %struct.CallInfo, ptr %21, i32 0, i32 5
  %23 = load i32, ptr %22, align 4, !tbaa !75
  %24 = and i32 %23, -3
  store i32 %24, ptr %22, align 4, !tbaa !75
  call void @llvm.lifetime.start.p0(i64 4, ptr %7) #15
  %25 = load ptr, ptr %3, align 8, !tbaa !20
  %26 = getelementptr inbounds nuw %struct.lua_State, ptr %25, i32 0, i32 3
  %27 = load i8, ptr %26, align 1, !tbaa !90
  %28 = zext i8 %27 to i32
  store i32 %28, ptr %7, align 4, !tbaa !23
  %29 = load ptr, ptr %3, align 8, !tbaa !20
  %30 = getelementptr inbounds nuw %struct.lua_State, ptr %29, i32 0, i32 3
  store i8 0, ptr %30, align 1, !tbaa !90
  %31 = load i32, ptr %7, align 4, !tbaa !23
  %32 = icmp ne i32 %31, 2
  br i1 %32, label %33, label %39

33:                                               ; preds = %2
  %34 = load ptr, ptr %3, align 8, !tbaa !20
  %35 = load i32, ptr %7, align 4, !tbaa !23
  %36 = load ptr, ptr %3, align 8, !tbaa !20
  %37 = getelementptr inbounds nuw %struct.lua_State, ptr %36, i32 0, i32 7
  %38 = load ptr, ptr %37, align 8, !tbaa !51
  call void @_ZL11seterrorobjP9lua_StateiP10lua_TValue(ptr noundef %34, i32 noundef %35, ptr noundef %38)
  br label %39

39:                                               ; preds = %33, %2
  %40 = load ptr, ptr %5, align 8, !tbaa !45
  %41 = getelementptr inbounds nuw %struct.CallInfo, ptr %40, i32 0, i32 0
  %42 = load ptr, ptr %41, align 8, !tbaa !46
  %43 = load ptr, ptr %3, align 8, !tbaa !20
  %44 = getelementptr inbounds nuw %struct.lua_State, ptr %43, i32 0, i32 8
  store ptr %42, ptr %44, align 8, !tbaa !49
  %45 = load ptr, ptr %3, align 8, !tbaa !20
  %46 = getelementptr inbounds nuw %struct.lua_State, ptr %45, i32 0, i32 7
  %47 = load ptr, ptr %46, align 8, !tbaa !51
  %48 = load ptr, ptr %5, align 8, !tbaa !45
  %49 = getelementptr inbounds nuw %struct.CallInfo, ptr %48, i32 0, i32 2
  store ptr %47, ptr %49, align 8, !tbaa !50
  call void @llvm.lifetime.start.p0(i64 8, ptr %8) #15
  %50 = load ptr, ptr %5, align 8, !tbaa !45
  %51 = load ptr, ptr %3, align 8, !tbaa !20
  %52 = getelementptr inbounds nuw %struct.lua_State, ptr %51, i32 0, i32 14
  %53 = load ptr, ptr %52, align 8, !tbaa !67
  %54 = ptrtoint ptr %50 to i64
  %55 = ptrtoint ptr %53 to i64
  %56 = sub i64 %54, %55
  store i64 %56, ptr %8, align 8, !tbaa !73
  call void @llvm.lifetime.start.p0(i64 4, ptr %9) #15
  %57 = load ptr, ptr %6, align 8, !tbaa !93
  %58 = getelementptr inbounds nuw %struct.Closure, ptr %57, i32 0, i32 9
  %59 = getelementptr inbounds nuw %struct.anon, ptr %58, i32 0, i32 1
  %60 = load ptr, ptr %59, align 8, !tbaa !65
  %61 = load ptr, ptr %3, align 8, !tbaa !20
  %62 = load i32, ptr %7, align 4, !tbaa !23
  %63 = call noundef i32 %60(ptr noundef %61, i32 noundef %62)
  store i32 %63, ptr %9, align 4, !tbaa !23
  %64 = load ptr, ptr %3, align 8, !tbaa !20
  %65 = getelementptr inbounds nuw %struct.lua_State, ptr %64, i32 0, i32 14
  %66 = load ptr, ptr %65, align 8, !tbaa !67
  %67 = load i64, ptr %8, align 8, !tbaa !73
  %68 = getelementptr inbounds i8, ptr %66, i64 %67
  %69 = load ptr, ptr %3, align 8, !tbaa !20
  %70 = getelementptr inbounds nuw %struct.lua_State, ptr %69, i32 0, i32 10
  store ptr %68, ptr %70, align 8, !tbaa !35
  %71 = load ptr, ptr %3, align 8, !tbaa !20
  %72 = load ptr, ptr %3, align 8, !tbaa !20
  %73 = getelementptr inbounds nuw %struct.lua_State, ptr %72, i32 0, i32 10
  %74 = load ptr, ptr %73, align 8, !tbaa !35
  %75 = getelementptr inbounds nuw %struct.CallInfo, ptr %74, i32 0, i32 0
  %76 = load ptr, ptr %75, align 8, !tbaa !46
  call void @_Z10luaF_closeP9lua_StateP10lua_TValue(ptr noundef %71, ptr noundef %76)
  %77 = load ptr, ptr %3, align 8, !tbaa !20
  %78 = load ptr, ptr %3, align 8, !tbaa !20
  %79 = getelementptr inbounds nuw %struct.lua_State, ptr %78, i32 0, i32 7
  %80 = load ptr, ptr %79, align 8, !tbaa !51
  %81 = load i32, ptr %9, align 4, !tbaa !23
  %82 = sext i32 %81 to i64
  %83 = sub i64 0, %82
  %84 = getelementptr inbounds %struct.lua_TValue, ptr %80, i64 %83
  call void @_Z12luau_poscallP9lua_StateP10lua_TValue(ptr noundef %77, ptr noundef %84)
  %85 = load ptr, ptr %3, align 8, !tbaa !20
  call void @_ZL15resume_continueP9lua_State(ptr noundef %85)
  call void @llvm.lifetime.end.p0(i64 4, ptr %9) #15
  call void @llvm.lifetime.end.p0(i64 8, ptr %8) #15
  call void @llvm.lifetime.end.p0(i64 4, ptr %7) #15
  call void @llvm.lifetime.end.p0(i64 8, ptr %6) #15
  call void @llvm.lifetime.end.p0(i64 8, ptr %5) #15
  ret void
}