; Function Attrs: mustprogress uwtable
define internal void @_ZL13resume_handleP9lua_StatePv(ptr noundef initializes((80, 82)) %0, ptr noundef initializes((16, 24)) %1) #0 {
  %3 = getelementptr inbounds nuw i8, ptr %1, i64 8
  %4 = load ptr, ptr %3, align 8, !tbaa !48
  %5 = load ptr, ptr %4, align 8, !tbaa !42
  %6 = getelementptr inbounds nuw i8, ptr %0, i64 82
  %7 = load i16, ptr %6, align 2, !tbaa !73
  %8 = getelementptr inbounds nuw i8, ptr %0, i64 80
  store i16 %7, ptr %8, align 8, !tbaa !55
  %9 = getelementptr inbounds nuw i8, ptr %1, i64 36
  %10 = load i32, ptr %9, align 4, !tbaa !56
  %11 = and i32 %10, -3
  store i32 %11, ptr %9, align 4, !tbaa !56
  %12 = getelementptr inbounds nuw i8, ptr %0, i64 3
  %13 = load i8, ptr %12, align 1, !tbaa !72
  %14 = zext i8 %13 to i32
  store i8 0, ptr %12, align 1, !tbaa !72
  %.phi.trans.insert = getelementptr inbounds nuw i8, ptr %0, i64 8
  %.pre = load ptr, ptr %.phi.trans.insert, align 8, !tbaa !37
  switch i8 %13, label %_ZL11seterrorobjP9lua_StateiP10lua_TValue.exit [
    i8 2, label %._crit_edge
    i8 4, label %15
    i8 5, label %18
    i8 3, label %21
  ]

15:                                               ; preds = %2
  %16 = tail call noundef ptr @_Z12luaS_newlstrP9lua_StatePKcm(ptr noundef nonnull %0, ptr noundef nonnull @.str.14, i64 noundef 17)
  store ptr %16, ptr %.pre, align 8, !tbaa !42
  %17 = getelementptr inbounds nuw i8, ptr %.pre, i64 12
  store i32 5, ptr %17, align 4, !tbaa !50
  br label %_ZL11seterrorobjP9lua_StateiP10lua_TValue.exit

18:                                               ; preds = %2
  %19 = tail call noundef ptr @_Z12luaS_newlstrP9lua_StatePKcm(ptr noundef nonnull %0, ptr noundef nonnull @.str.15, i64 noundef 23)
  store ptr %19, ptr %.pre, align 8, !tbaa !42
  %20 = getelementptr inbounds nuw i8, ptr %.pre, i64 12
  store i32 5, ptr %20, align 4, !tbaa !50
  br label %_ZL11seterrorobjP9lua_StateiP10lua_TValue.exit

21:                                               ; preds = %2
  %22 = getelementptr inbounds i8, ptr %.pre, i64 -16
  tail call void @llvm.memcpy.p0.p0.i64(ptr noundef nonnull align 8 dereferenceable(16) %.pre, ptr noundef nonnull align 8 dereferenceable(16) %22, i64 16, i1 false), !tbaa.struct !75
  br label %_ZL11seterrorobjP9lua_StateiP10lua_TValue.exit

_ZL11seterrorobjP9lua_StateiP10lua_TValue.exit:   ; preds = %2, %15, %18, %21
  %23 = getelementptr inbounds nuw i8, ptr %.pre, i64 16
  store ptr %23, ptr %.phi.trans.insert, align 8, !tbaa !37
  br label %._crit_edge

._crit_edge:                                      ; preds = %2, %_ZL11seterrorobjP9lua_StateiP10lua_TValue.exit
  %24 = phi ptr [ %23, %_ZL11seterrorobjP9lua_StateiP10lua_TValue.exit ], [ %.pre, %2 ]
  %25 = load ptr, ptr %1, align 8, !tbaa !32
  %26 = getelementptr inbounds nuw i8, ptr %0, i64 16
  store ptr %25, ptr %26, align 8, !tbaa !35
  %27 = getelementptr inbounds nuw i8, ptr %0, i64 8
  %28 = getelementptr inbounds nuw i8, ptr %1, i64 16
  store ptr %24, ptr %28, align 8, !tbaa !36
  %29 = getelementptr inbounds nuw i8, ptr %0, i64 64
  %30 = load ptr, ptr %29, align 8, !tbaa !43
  %31 = ptrtoint ptr %1 to i64
  %32 = ptrtoint ptr %30 to i64
  %33 = sub i64 %31, %32
  %34 = getelementptr inbounds nuw i8, ptr %5, i64 32
  %35 = load ptr, ptr %34, align 8, !tbaa !42
  %36 = tail call noundef i32 %35(ptr noundef nonnull %0, i32 noundef %14)
  %37 = load ptr, ptr %29, align 8, !tbaa !43
  %38 = getelementptr inbounds i8, ptr %37, i64 %33
  %39 = getelementptr inbounds nuw i8, ptr %0, i64 32
  store ptr %38, ptr %39, align 8, !tbaa !22
  %40 = load ptr, ptr %38, align 8, !tbaa !32
  tail call void @_Z10luaF_closeP9lua_StateP10lua_TValue(ptr noundef nonnull %0, ptr noundef %40)
  %41 = load ptr, ptr %27, align 8, !tbaa !37
  %42 = sext i32 %36 to i64
  %43 = sub nsw i64 0, %42
  %44 = getelementptr inbounds %struct.lua_TValue, ptr %41, i64 %43
  tail call void @_Z12luau_poscallP9lua_StateP10lua_TValue(ptr noundef nonnull %0, ptr noundef %44)
  %45 = load i8, ptr %12, align 1, !tbaa !72
  %46 = icmp eq i8 %45, 0
  br i1 %46, label %.lr.ph.i, label %_ZL15resume_continueP9lua_State.exit

.lr.ph.i:                                         ; preds = %._crit_edge, %67
  %47 = load ptr, ptr %39, align 8, !tbaa !22
  %48 = load ptr, ptr %29, align 8, !tbaa !43
  %49 = icmp ugt ptr %47, %48
  br i1 %49, label %50, label %_ZL15resume_continueP9lua_State.exit

50:                                               ; preds = %.lr.ph.i
  %51 = getelementptr inbounds nuw i8, ptr %47, i64 8
  %52 = load ptr, ptr %51, align 8, !tbaa !48
  %53 = load ptr, ptr %52, align 8, !tbaa !42
  %54 = getelementptr inbounds nuw i8, ptr %53, i64 3
  %55 = load i8, ptr %54, align 1, !tbaa !78
  %.not.i = icmp eq i8 %55, 0
  br i1 %.not.i, label %66, label %56

56:                                               ; preds = %50
  %57 = getelementptr inbounds nuw i8, ptr %53, i64 32
  %58 = load ptr, ptr %57, align 8, !tbaa !42
  %59 = tail call noundef i32 %58(ptr noundef nonnull %0, i32 noundef 0)
  %60 = load i8, ptr %12, align 1, !tbaa !72
  %.not14.i = icmp eq i8 %60, 6
  br i1 %.not14.i, label %_ZL15resume_continueP9lua_State.exit, label %61

61:                                               ; preds = %56
  %62 = load ptr, ptr %27, align 8, !tbaa !37
  %63 = sext i32 %59 to i64
  %64 = sub nsw i64 0, %63
  %65 = getelementptr inbounds %struct.lua_TValue, ptr %62, i64 %64
  tail call void @_Z12luau_poscallP9lua_StateP10lua_TValue(ptr noundef nonnull %0, ptr noundef %65)
  br label %67

66:                                               ; preds = %50
  tail call void @_Z12luau_executeP9lua_State(ptr noundef nonnull %0)
  br label %67

67:                                               ; preds = %66, %61
  %68 = load i8, ptr %12, align 1, !tbaa !72
  %69 = icmp eq i8 %68, 0
  br i1 %69, label %.lr.ph.i, label %_ZL15resume_continueP9lua_State.exit

_ZL15resume_continueP9lua_State.exit:             ; preds = %.lr.ph.i, %56, %67, %._crit_edge
  ret void
}